; Function Attrs: null_pointer_is_valid sspstrong uwtable
define hidden void @proto_register_isis_hello() local_unnamed_addr #0 {
  %1 = tail call i32 @proto_register_protocol(ptr noundef nonnull @.str.172, ptr noundef nonnull @.str.172, ptr noundef nonnull @.str.173)
  store i32 %1, ptr @proto_isis_hello, align 4
  tail call void @proto_register_field_array(i32 noundef %1, ptr noundef nonnull @proto_register_isis_hello.hf, i32 noundef 81)
  tail call void @proto_register_subtree_array(ptr noundef nonnull @proto_register_isis_hello.ett, i32 noundef 31)
  %2 = load i32, ptr @proto_isis_hello, align 4
  %3 = tail call ptr @expert_register_protocol(i32 noundef %2)
  tail call void @expert_register_field_array(ptr noundef %3, ptr noundef nonnull @proto_register_isis_hello.ei, i32 noundef 8)
  ret void
}